target datalayout = "e-m:e-p270:32:32-p271:32:32-p272:64:64-i64:64-i128:128-f80:128-n8:16:32:64-S128"
target triple = "x86_64-pc-linux-gnu"

; Function Attrs: nounwind uwtable
define dso_local double @date2timestamp_no_overflow(i32 noundef %0) #0 {
  %2 = alloca i32, align 4
  %3 = alloca double, align 8
  store i32 %0, ptr %2, align 4
  call void @llvm.lifetime.start.p0(i64 8, ptr %3) #9
  %4 = load i32, ptr %2, align 4
  %5 = icmp eq i32 %4, -2147483648
  br i1 %5, label %6, label %7

6:                                                ; preds = %1
  store double 0xFFEFFFFFFFFFFFFF, ptr %3, align 8
  br label %16

7:                                                ; preds = %1
  %8 = load i32, ptr %2, align 4
  %9 = icmp eq i32 %8, 2147483647
  br i1 %9, label %10, label %11

10:                                               ; preds = %7
  store double 0x7FEFFFFFFFFFFFFF, ptr %3, align 8
  br label %15

11:                                               ; preds = %7
  %12 = load i32, ptr %2, align 4
  %13 = sitofp i32 %12 to double
  %14 = fmul double %13, 8.640000e+10
  store double %14, ptr %3, align 8
  br label %15

15:                                               ; preds = %11, %10
  br label %16

16:                                               ; preds = %15, %6
  %17 = load double, ptr %3, align 8
  call void @llvm.lifetime.end.p0(i64 8, ptr %3) #9
  ret double %17
}