; Function Attrs: mustprogress nofree norecurse nosync nounwind willreturn memory(none) uwtable
define dso_local noundef double @date2timestamp_no_overflow(i32 noundef %0) local_unnamed_addr #7 {
  switch i32 %0, label %3 [
    i32 -2147483648, label %6
    i32 2147483647, label %2
  ]

2:                                                ; preds = %1
  br label %6

3:                                                ; preds = %1
  %4 = sitofp i32 %0 to double
  %5 = fmul double %4, 8.640000e+10
  br label %6

6:                                                ; preds = %1, %2, %3
  %.0 = phi double [ 0x7FEFFFFFFFFFFFFF, %2 ], [ %5, %3 ], [ 0xFFEFFFFFFFFFFFFF, %1 ]
  ret double %.0
}